Certificate:
    Data:
        Version: 3 (0x2)
        Serial Number: 1 (0x1)
    Signature Algorithm: sha256WithRSAEncryption
        Issuer: C=US, ST=Unset, L=Unset, O=Unset, CN=www.example.com
        Validity
            Not Before: Jun  9 09:25:30 2015 GMT
            Not After : Jun  6 09:25:30 2025 GMT
        Subject: C=US, ST=Unset, O=Unset, CN=www.example.com
        Subject Public Key Info:
            Public Key Algorithm: rsaEncryption
                Public-Key: (2048 bit)
                Modulus:
                    00:c6:b2:ff:46:99:ee:d6:c4:a7:b2:8b:18:0c:af:
                    e8:d0:dd:b1:bb:4f:b0:69:50:ba:ca:21:01:f0:90:
                    12:90:7c:50:cf:95:4b:c2:ba:2b:d3:3f:2b:8f:7c:
                    9c:ef:3d:56:99:60:df:a0:b0:c5:60:63:d7:c9:19:
                    b5:97:28:09:a7:66:12:a3:46:49:b6:74:7f:d6:04:
                    c4:9f:93:4e:d3:c6:23:de:0e:61:bb:b4:fb:c9:0c:
                    87:2f:c3:65:12:09:df:2f:b7:83:10:7d:73:3a:91:
                    56:fe:06:5d:0d:3f:c4:6d:d6:78:04:32:e4:6b:ee:
                    ec:e4:99:95:4a:e7:77:1f:1a:f7:a4:c6:43:a5:49:
                    cb:b1:44:b1:00:b2:5d:2d:ea:ba:f3:cf:30:e7:12:
                    f0:1d:7e:33:3f:42:46:8e:2f:5d:66:a9:35:11:39:
                    d4:3d:29:ee:d6:3f:68:6c:89:45:69:c8:28:24:9d:
                    fc:cd:02:18:e9:39:b7:e8:1c:7d:33:2f:fb:ec:ab:
                    66:25:00:ee:13:27:9b:67:10:19:58:6c:6d:a1:31:
                    96:dc:e7:76:0d:2f:95:58:42:61:ae:73:be:e3:9f:
                    a5:05:ad:81:1e:93:b9:d8:58:38:a6:84:f2:6b:c9:
                    5e:c4:2a:b6:14:b5:55:55:cb:41:bd:5c:7d:c9:a7:
                    31:a3
                Exponent: 65537 (0x10001)
        X509v3 extensions:
            X509v3 Basic Constraints: 
                CA:FALSE
            X509v3 Subject Key Identifier: 
                2D:9A:E4:03:D3:B8:F0:3B:2C:AC:EE:90:95:85:2E:A3:ED:20:D2:EB
            X509v3 Authority Key Identifier: 
                keyid:34:B3:97:3E:DC:6F:31:7D:C9:FD:93:57:B4:9B:5B:75:5A:7D:70:C4

    Signature Algorithm: sha256WithRSAEncryption
         b5:84:54:30:70:94:d3:1e:cd:fe:bf:96:c2:27:34:b1:f0:ea:
         b7:23:04:2c:30:52:db:9f:ba:83:1c:f5:1e:fa:ed:70:a9:a0:
         72:aa:36:6d:e3:c0:86:a1:a6:ce:1b:fa:d3:d9:23:ee:66:d9:
         5e:46:4b:d1:15:7e:5b:ca:63:01:d7:96:fa:0b:9f:20:e5:21:
         0e:6b:16:9a:34:9d:a8:b7:a6:81:a2:48:3a:f5:5e:60:e7:93:
         99:ec:b3:9f:26:7a:07:df:97:65:ba:cc:4f:8d:56:c4:17:95:
         00:62:d0:13:eb:40:dc:bd:ff:f9:0e:4b:14:b8:cf:0e:80:36:
         73:60:d8:39:9c:02:6a:07:ad:45:88:72:9d:a5:41:c0:33:dd:
         6b:44:b1:12:5f:e5:7e:bb:d9:81:c8:8f:53:29:d1:21:3f:73:
         7f:69:52:3b:06:a5:eb:31:ed:6c:85:6f:1d:5b:96:90:3e:c7:
         9d:1f:04:89:b9:e2:e3:a2:e4:e5:7d:5c:b3:2c:59:b1:95:b5:
         68:cc:d4:27:8b:4b:00:e6:f1:2d:a1:39:2a:15:40:a2:78:d1:
         a0:0d:f3:73:8a:91:21:e8:3f:a4:3e:4e:9e:bf:2b:df:b0:4f:
         e3:12:09:cb:31:f4:39:aa:8c:5a:d2:81:1c:e9:a1:02:9f:eb:
         c6:6b:6e:19
-----BEGIN CERTIFICATE-----
MIIDZjCCAk6gAwIBAgIBATANBgkqhkiG9w0BAQsFADBXMQswCQYDVQQGEwJVUzEO
MAwGA1UECAwFVW5zZXQxDjAMBgNVBAcMBVVuc2V0MQ4wDAYDVQQKDAVVbnNldDEY
MBYGA1UEAwwPd3d3LmV4YW1wbGUuY29tMB4XDTE1MDYwOTA5MjUzMFoXDTI1MDYw
NjA5MjUzMFowRzELMAkGA1UEBhMCVVMxDjAMBgNVBAgMBVVuc2V0MQ4wDAYDVQQK
DAVVbnNldDEYMBYGA1UEAwwPd3d3LmV4YW1wbGUuY29tMIIBIjANBgkqhkiG9w0B
AQEFAAOCAQ8AMIIBCgKCAQEAxrL/Rpnu1sSnsosYDK/o0N2xu0+waVC6yiEB8JAS
kHxQz5VLwror0z8rj3yc7z1WmWDfoLDFYGPXyRm1lygJp2YSo0ZJtnR/1gTEn5NO
08Yj3g5hu7T7yQyHL8NlEgnfL7eDEH1zOpFW/gZdDT/EbdZ4BDLka+7s5JmVSud3
Hxr3pMZDpUnLsUSxALJdLeq6888w5xLwHX4zP0JGji9dZqk1ETnUPSnu1j9obIlF
acgoJJ38zQIY6Tm36Bx9My/77KtmJQDuEyebZxAZWGxtoTGW3Od2DS+VWEJhrnO+
45+lBa2BHpO52Fg4poTya8lexCq2FLVVVctBvVx9yacxowIDAQABo00wSzAJBgNV
HRMEAjAAMB0GA1UdDgQWBBQtmuQD07jwOyys7pCVhS6j7SDS6zAfBgNVHSMEGDAW
gBQ0s5c+3G8xfcn9k1e0m1t1Wn1wxDANBgkqhkiG9w0BAQsFAAOCAQEAtYRUMHCU
0x7N/r+Wwic0sfDqtyMELDBS25+6gxz1HvrtcKmgcqo2bePAhqGmzhv609kj7mbZ
XkZL0RV+W8pjAdeW+gufIOUhDmsWmjSdqLemgaJIOvVeYOeTmeyznyZ6B9+XZbrM
T41WxBeVAGLQE+tA3L3/+Q5LFLjPDoA2c2DYOZwCagetRYhynaVBwDPda0SxEl/l
frvZgciPUynRIT9zf2lSOwal6zHtbIVvHVuWkD7HnR8Eibni46Lk5X1csyxZsZW1
aMzUJ4tLAObxLaE5KhVAonjRoA3zc4qRIeg/pD5Onr8r37BP4xIJyzH0OaqMWtKB
HOmhAp/rxmtuGQ==
-----END CERTIFICATE-----
